target datalayout = "e-m:e-p270:32:32-p271:32:32-p272:64:64-i64:64-i128:128-f80:128-n8:16:32:64-S128"
target triple = "x86_64-pc-linux-gnu"

@Aig_FileNameGenericAppend.Buffer = internal global [1000 x i8] zeroinitializer, align 16

; Function Attrs: nounwind uwtable
define ptr @Aig_FileNameGenericAppend(ptr noundef %0, ptr noundef %1) #0 {
  %3 = alloca ptr, align 8
  %4 = alloca ptr, align 8
  %5 = alloca ptr, align 8
  %6 = alloca ptr, align 8
  %7 = alloca i32, align 4
  store ptr %0, ptr %4, align 8, !tbaa !28
  store ptr %1, ptr %5, align 8, !tbaa !28
  call void @llvm.lifetime.start.p0(i64 8, ptr %6) #10
  %8 = load ptr, ptr %4, align 8, !tbaa !28
  %9 = call ptr @strcpy(ptr noundef @Aig_FileNameGenericAppend.Buffer, ptr noundef %8) #10
  %10 = call ptr @strrchr(ptr noundef @Aig_FileNameGenericAppend.Buffer, i32 noundef 46) #11
  store ptr %10, ptr %6, align 8, !tbaa !28
  %11 = icmp ne ptr %10, null
  br i1 %11, label %12, label %14

12:                                               ; preds = %2
  %13 = load ptr, ptr %6, align 8, !tbaa !28
  store i8 0, ptr %13, align 1, !tbaa !25
  br label %14

14:                                               ; preds = %12, %2
  %15 = load ptr, ptr %5, align 8, !tbaa !28
  %16 = call ptr @strcat(ptr noundef @Aig_FileNameGenericAppend.Buffer, ptr noundef %15) #10
  %17 = call ptr @strrchr(ptr noundef @Aig_FileNameGenericAppend.Buffer, i32 noundef 92) #11
  store ptr %17, ptr %6, align 8, !tbaa !28
  %18 = icmp ne ptr %17, null
  br i1 %18, label %22, label %19

19:                                               ; preds = %14
  %20 = call ptr @strrchr(ptr noundef @Aig_FileNameGenericAppend.Buffer, i32 noundef 47) #11
  store ptr %20, ptr %6, align 8, !tbaa !28
  %21 = icmp ne ptr %20, null
  br i1 %21, label %22, label %25

22:                                               ; preds = %19, %14
  %23 = load ptr, ptr %6, align 8, !tbaa !28
  %24 = getelementptr inbounds i8, ptr %23, i64 1
  store ptr %24, ptr %3, align 8
  store i32 1, ptr %7, align 4
  br label %26

25:                                               ; preds = %19
  store ptr @Aig_FileNameGenericAppend.Buffer, ptr %3, align 8
  store i32 1, ptr %7, align 4
  br label %26

26:                                               ; preds = %25, %22
  call void @llvm.lifetime.end.p0(i64 8, ptr %6) #10
  %27 = load ptr, ptr %3, align 8
  ret ptr %27
}